; ModuleID = '13/1393.c'
source_filename = "13/1393.c"
target datalayout = "e-m:e-p270:32:32-p271:32:32-p272:64:64-i64:64-f80:128-n8:16:32:64-S128"
target triple = "x86_64-pc-linux-gnu"

@.str = private unnamed_addr constant [3 x i8] c"%d\00", align 1
@.str.1 = private unnamed_addr constant [4 x i8] c" %d\00", align 1

; Function Attrs: noinline nounwind uwtable
define dso_local i32 @main() #0 {
  %1 = alloca i32, align 4
  %2 = alloca [100000 x i32], align 16
  %3 = alloca i32, align 4
  %4 = alloca i32, align 4
  %5 = alloca i32, align 4
  %6 = alloca i32, align 4
  %7 = alloca i32, align 4
  %8 = alloca i32, align 4
  store i32 0, i32* %1, align 4
  %9 = call i32 (i8*, ...) @__isoc99_scanf(i8* getelementptr inbounds ([3 x i8], [3 x i8]* @.str, i64 0, i64 0), i32* %8)
  store i32 0, i32* %6, align 4
  store i32 1, i32* %3, align 4
  br label %10

10:                                               ; preds = %19, %0
  %11 = load i32, i32* %3, align 4
  %12 = load i32, i32* %8, align 4
  %13 = icmp sle i32 %11, %12
  br i1 %13, label %14, label %22

14:                                               ; preds = %10
  %15 = load i32, i32* %3, align 4
  %16 = sext i32 %15 to i64
  %17 = getelementptr inbounds [100000 x i32], [100000 x i32]* %2, i64 0, i64 %16
  %18 = call i32 (i8*, ...) @__isoc99_scanf(i8* getelementptr inbounds ([3 x i8], [3 x i8]* @.str, i64 0, i64 0), i32* %17)
  br label %19

19:                                               ; preds = %14
  %20 = load i32, i32* %3, align 4
  %21 = add nsw i32 %20, 1
  store i32 %21, i32* %3, align 4
  br label %10

22:                                               ; preds = %10
  store i32 1, i32* %3, align 4
  br label %23

23:                                               ; preds = %73, %22
  %24 = load i32, i32* %3, align 4
  %25 = load i32, i32* %8, align 4
  %26 = icmp sle i32 %24, %25
  br i1 %26, label %27, label %76

27:                                               ; preds = %23
  store i32 0, i32* %7, align 4
  store i32 1, i32* %5, align 4
  br label %28

28:                                               ; preds = %46, %27
  %29 = load i32, i32* %5, align 4
  %30 = load i32, i32* %3, align 4
  %31 = icmp slt i32 %29, %30
  br i1 %31, label %32, label %49

32:                                               ; preds = %28
  %33 = load i32, i32* %5, align 4
  %34 = sext i32 %33 to i64
  %35 = getelementptr inbounds [100000 x i32], [100000 x i32]* %2, i64 0, i64 %34
  %36 = load i32, i32* %35, align 4
  %37 = load i32, i32* %3, align 4
  %38 = sext i32 %37 to i64
  %39 = getelementptr inbounds [100000 x i32], [100000 x i32]* %2, i64 0, i64 %38
  %40 = load i32, i32* %39, align 4
  %41 = icmp ne i32 %36, %40
  br i1 %41, label %42, label %45

42:                                               ; preds = %32
  %43 = load i32, i32* %7, align 4
  %44 = add nsw i32 %43, 1
  store i32 %44, i32* %7, align 4
  br label %45

45:                                               ; preds = %42, %32
  br label %46

46:                                               ; preds = %45
  %47 = load i32, i32* %5, align 4
  %48 = add nsw i32 %47, 1
  store i32 %48, i32* %5, align 4
  br label %28

49:                                               ; preds = %28
  %50 = load i32, i32* %7, align 4
  %51 = load i32, i32* %3, align 4
  %52 = sub nsw i32 %51, 1
  %53 = icmp eq i32 %50, %52
  br i1 %53, label %54, label %72

54:                                               ; preds = %49
  %55 = load i32, i32* %6, align 4
  %56 = add nsw i32 %55, 1
  store i32 %56, i32* %6, align 4
  %57 = load i32, i32* %6, align 4
  %58 = icmp eq i32 %57, 1
  br i1 %58, label %59, label %65

59:                                               ; preds = %54
  %60 = load i32, i32* %3, align 4
  %61 = sext i32 %60 to i64
  %62 = getelementptr inbounds [100000 x i32], [100000 x i32]* %2, i64 0, i64 %61
  %63 = load i32, i32* %62, align 4
  %64 = call i32 (i8*, ...) @printf(i8* getelementptr inbounds ([3 x i8], [3 x i8]* @.str, i64 0, i64 0), i32 %63)
  br label %71

65:                                               ; preds = %54
  %66 = load i32, i32* %3, align 4
  %67 = sext i32 %66 to i64
  %68 = getelementptr inbounds [100000 x i32], [100000 x i32]* %2, i64 0, i64 %67
  %69 = load i32, i32* %68, align 4
  %70 = call i32 (i8*, ...) @printf(i8* getelementptr inbounds ([4 x i8], [4 x i8]* @.str.1, i64 0, i64 0), i32 %69)
  br label %71

71:                                               ; preds = %65, %59
  br label %72

72:                                               ; preds = %71, %49
  br label %73

73:                                               ; preds = %72
  %74 = load i32, i32* %3, align 4
  %75 = add nsw i32 %74, 1
  store i32 %75, i32* %3, align 4
  br label %23

76:                                               ; preds = %23
  ret i32 0
}

declare dso_local i32 @__isoc99_scanf(i8*, ...) #1

declare dso_local i32 @printf(i8*, ...) #1


!llvm.module.flags = !{!0}
!llvm.ident = !{!1}

!0 = !{i32 1, !"wchar_size", i32 4}
!1 = !{!"clang version 10.0.0-4ubuntu1 "}
